target datalayout = "e-m:e-p270:32:32-p271:32:32-p272:64:64-i64:64-i128:128-f80:128-n8:16:32:64-S128"
target triple = "x86_64-pc-linux-gnu"

%struct.UScriptRun = type { i32, ptr, i32, i32, i32, [32 x %struct.ParenStackEntry], i32, i32, i32 }
%struct.ParenStackEntry = type { i32, i32 }

; Function Attrs: mustprogress nounwind uwtable
define void @uscript_resetRun_77(ptr noundef %0) #5 {
  %2 = alloca ptr, align 8
  store ptr %0, ptr %2, align 8, !tbaa !11
  %3 = load ptr, ptr %2, align 8, !tbaa !11
  %4 = icmp ne ptr %3, null
  br i1 %4, label %5, label %18

5:                                                ; preds = %1
  %6 = load ptr, ptr %2, align 8, !tbaa !11
  %7 = getelementptr inbounds nuw %struct.UScriptRun, ptr %6, i32 0, i32 2
  store i32 0, ptr %7, align 8, !tbaa !19
  %8 = load ptr, ptr %2, align 8, !tbaa !11
  %9 = getelementptr inbounds nuw %struct.UScriptRun, ptr %8, i32 0, i32 3
  store i32 0, ptr %9, align 4, !tbaa !20
  %10 = load ptr, ptr %2, align 8, !tbaa !11
  %11 = getelementptr inbounds nuw %struct.UScriptRun, ptr %10, i32 0, i32 4
  store i32 -1, ptr %11, align 8, !tbaa !21
  %12 = load ptr, ptr %2, align 8, !tbaa !11
  %13 = getelementptr inbounds nuw %struct.UScriptRun, ptr %12, i32 0, i32 6
  store i32 -1, ptr %13, align 4, !tbaa !22
  %14 = load ptr, ptr %2, align 8, !tbaa !11
  %15 = getelementptr inbounds nuw %struct.UScriptRun, ptr %14, i32 0, i32 7
  store i32 0, ptr %15, align 8, !tbaa !23
  %16 = load ptr, ptr %2, align 8, !tbaa !11
  %17 = getelementptr inbounds nuw %struct.UScriptRun, ptr %16, i32 0, i32 8
  store i32 0, ptr %17, align 4, !tbaa !24
  br label %18

18:                                               ; preds = %5, %1
  ret void
}

; Function Attrs: inlinehint mustprogress nounwind uwtable
define internal noundef signext i8 @_ZL9U_FAILURE10UErrorCode(i32 noundef %0) #2 {
  %2 = alloca i32, align 4
  store i32 %0, ptr %2, align 4, !tbaa !13
  %3 = load i32, ptr %2, align 4, !tbaa !13
  %4 = icmp sgt i32 %3, 0
  %5 = zext i1 %4 to i8
  ret i8 %5
}

; Function Attrs: mustprogress uwtable
define void @uscript_setRunText_77(ptr noundef %0, ptr noundef %1, i32 noundef %2, ptr noundef %3) #0 {
  %5 = alloca ptr, align 8
  %6 = alloca ptr, align 8
  %7 = alloca i32, align 4
  %8 = alloca ptr, align 8
  store ptr %0, ptr %5, align 8, !tbaa !11
  store ptr %1, ptr %6, align 8, !tbaa !3
  store i32 %2, ptr %7, align 4, !tbaa !8
  store ptr %3, ptr %8, align 8, !tbaa !10
  %9 = load ptr, ptr %8, align 8, !tbaa !10
  %10 = icmp eq ptr %9, null
  br i1 %10, label %16, label %11

11:                                               ; preds = %4
  %12 = load ptr, ptr %8, align 8, !tbaa !10
  %13 = load i32, ptr %12, align 4, !tbaa !13
  %14 = call noundef signext i8 @_ZL9U_FAILURE10UErrorCode(i32 noundef %13)
  %15 = icmp ne i8 %14, 0
  br i1 %15, label %16, label %17

16:                                               ; preds = %11, %4
  br label %41

17:                                               ; preds = %11
  %18 = load ptr, ptr %5, align 8, !tbaa !11
  %19 = icmp eq ptr %18, null
  br i1 %19, label %31, label %20

20:                                               ; preds = %17
  %21 = load i32, ptr %7, align 4, !tbaa !8
  %22 = icmp slt i32 %21, 0
  br i1 %22, label %31, label %23

23:                                               ; preds = %20
  %24 = load ptr, ptr %6, align 8, !tbaa !3
  %25 = icmp eq ptr %24, null
  %26 = zext i1 %25 to i32
  %27 = load i32, ptr %7, align 4, !tbaa !8
  %28 = icmp eq i32 %27, 0
  %29 = zext i1 %28 to i32
  %30 = icmp ne i32 %26, %29
  br i1 %30, label %31, label %33

31:                                               ; preds = %23, %20, %17
  %32 = load ptr, ptr %8, align 8, !tbaa !10
  store i32 1, ptr %32, align 4, !tbaa !13
  br label %41

33:                                               ; preds = %23
  %34 = load ptr, ptr %6, align 8, !tbaa !3
  %35 = load ptr, ptr %5, align 8, !tbaa !11
  %36 = getelementptr inbounds nuw %struct.UScriptRun, ptr %35, i32 0, i32 1
  store ptr %34, ptr %36, align 8, !tbaa !15
  %37 = load i32, ptr %7, align 4, !tbaa !8
  %38 = load ptr, ptr %5, align 8, !tbaa !11
  %39 = getelementptr inbounds nuw %struct.UScriptRun, ptr %38, i32 0, i32 0
  store i32 %37, ptr %39, align 8, !tbaa !18
  %40 = load ptr, ptr %5, align 8, !tbaa !11
  call void @uscript_resetRun_77(ptr noundef %40)
  br label %41

41:                                               ; preds = %33, %31, %16
  ret void
}