; Function Attrs: mustprogress nofree norecurse nosync nounwind willreturn memory(argmem: readwrite) uwtable
define void @uscript_setRunText_77(ptr noundef writeonly %0, ptr noundef %1, i32 noundef %2, ptr noundef %3) local_unnamed_addr #3 {
  %5 = icmp eq ptr %3, null
  br i1 %5, label %23, label %6

6:                                                ; preds = %4
  %7 = load i32, ptr %3, align 4, !tbaa !3
  %8 = icmp slt i32 %7, 1
  br i1 %8, label %9, label %23

9:                                                ; preds = %6
  %10 = icmp eq ptr %0, null
  %11 = icmp slt i32 %2, 0
  %or.cond = or i1 %10, %11
  br i1 %or.cond, label %15, label %12

12:                                               ; preds = %9
  %13 = icmp eq ptr %1, null
  %14 = icmp ne i32 %2, 0
  %.not14 = xor i1 %13, %14
  br i1 %.not14, label %uscript_resetRun_77.exit, label %15

15:                                               ; preds = %12, %9
  store i32 1, ptr %3, align 4, !tbaa !3
  br label %23

uscript_resetRun_77.exit:                         ; preds = %12
  %16 = getelementptr inbounds nuw i8, ptr %0, i64 8
  store ptr %1, ptr %16, align 8, !tbaa !7
  store i32 %2, ptr %0, align 8, !tbaa !13
  %17 = getelementptr inbounds nuw i8, ptr %0, i64 16
  store i32 0, ptr %17, align 8, !tbaa !14
  %18 = getelementptr inbounds nuw i8, ptr %0, i64 20
  store i32 0, ptr %18, align 4, !tbaa !15
  %19 = getelementptr inbounds nuw i8, ptr %0, i64 24
  store i32 -1, ptr %19, align 8, !tbaa !16
  %20 = getelementptr inbounds nuw i8, ptr %0, i64 284
  store i32 -1, ptr %20, align 4, !tbaa !17
  %21 = getelementptr inbounds nuw i8, ptr %0, i64 288
  store i32 0, ptr %21, align 8, !tbaa !18
  %22 = getelementptr inbounds nuw i8, ptr %0, i64 292
  store i32 0, ptr %22, align 4, !tbaa !19
  br label %23

23:                                               ; preds = %4, %6, %uscript_resetRun_77.exit, %15
  ret void
}